target datalayout = "e-m:e-p270:32:32-p271:32:32-p272:64:64-i64:64-i128:128-f80:128-n8:16:32:64-S128"
target triple = "x86_64-pc-linux-gnu"

%class.OopHandle = type { ptr }
%class.CompilerThread = type { %class.JavaThread, ptr, ptr, ptr, ptr, ptr, ptr, i8, ptr, %class.TimeStamp, ptr }
%class.JavaThread = type { %class.Thread, i8, %class.OopHandle, %class.OopHandle, %class.OopHandle, %class.OopHandle, %class.JavaFrameAnchor, ptr, %struct.JNIEnv_, ptr, ptr, ptr, ptr, ptr, ptr, ptr, ptr, %class.MemRegion, ptr, i8, ptr, ptr, ptr, i32, i32, %"struct.SafepointMechanism::ThreadData", ptr, ptr, i32, i32, i8, i8, i8, i8, i8, i8, i8, i32, i8, i32, i8, i8, i64, %union.anon, ptr, ptr, i64, i64, ptr, ptr, %class.StackOverflow, ptr, ptr, ptr, i32, i32, ptr, i32, i32, i32, ptr, ptr, i32, i64, i64, %class.StackWatermarks, %class.HandshakeState, ptr, i32, ptr, i32, i32, ptr, %class.Parker, ptr, ptr, %class.LockStack }
%class.Thread = type { %class.ThreadShadow.base, i64, [43 x i64], ptr, ptr, i32, ptr, i64, i64, %class.ThreadLocalAllocBuffer, i64, %class.ThreadHeapSampler, %class.ThreadStatisticalInfo, %class.JfrThreadLocal, ptr, ptr, ptr, ptr, ptr, ptr, i64, i32, i32, ptr, i32, i32, i32, i32, i8, ptr }
%class.ThreadShadow.base = type <{ ptr, ptr, ptr, i32 }>
%class.ThreadLocalAllocBuffer = type <{ ptr, ptr, ptr, ptr, ptr, i64, i64, i64, i64, i32, i32, i32, i32, i64, %class.AdaptiveWeightedAverage, [4 x i8] }>
%class.AdaptiveWeightedAverage = type { float, i32, i32, i8, float }
%class.ThreadHeapSampler = type { i64 }
%class.ThreadStatisticalInfo = type { i64, i64 }
%class.JfrThreadLocal = type <{ ptr, ptr, ptr, ptr, ptr, ptr, ptr, ptr, ptr, ptr, %class.RefCountHandle, i64, i64, i64, i64, i64, i64, i64, i64, i64, i64, i64, i32, i32, i32, i16, i8, i8, i8, i8, i8, [5 x i8] }>
%class.RefCountHandle = type { ptr }
%class.JavaFrameAnchor = type { ptr, ptr, ptr }
%struct.JNIEnv_ = type { ptr }
%class.MemRegion = type { ptr, i64 }
%"struct.SafepointMechanism::ThreadData" = type { i64, i64 }
%union.anon = type { ptr }
%class.StackOverflow = type { i32, ptr, ptr, ptr, ptr, ptr, ptr }
%class.StackWatermarks = type { ptr }
%class.HandshakeState = type <{ ptr, %class.FilterQueue, %class.Monitor, ptr, i8, i8, i8, [5 x i8] }>
%class.FilterQueue = type { ptr }
%class.Monitor = type { %class.Mutex }
%class.Mutex = type { ptr, %class.PlatformMonitor, ptr }
%class.PlatformMonitor = type { %class.PlatformMutex, %union.pthread_cond_t }
%class.PlatformMutex = type { %union.pthread_mutex_t }
%union.pthread_mutex_t = type { %struct.__pthread_mutex_s }
%struct.__pthread_mutex_s = type { i32, i32, i32, i32, i32, i16, i16, %struct.__pthread_internal_list }
%struct.__pthread_internal_list = type { ptr, ptr }
%union.pthread_cond_t = type { %struct.__pthread_cond_s }
%struct.__pthread_cond_s = type { %union.__atomic_wide_counter, %union.__atomic_wide_counter, [2 x i32], [2 x i32], i32, i32, [2 x i32] }
%union.__atomic_wide_counter = type { i64 }
%class.Parker = type { %class.PlatformParker }
%class.PlatformParker = type { i32, i32, [1 x %union.pthread_mutex_t], [2 x %union.pthread_cond_t] }
%class.LockStack = type { i32, i64, [8 x ptr] }
%class.TimeStamp = type { i64 }
%class.ttyLocker = type { i64 }

@tty = external global ptr, align 8
@LogCompilation = external global i8, align 1
@xtty = external global ptr, align 8
@.str.71 = private unnamed_addr constant [18 x i8] c"hs_c%lu_pid%u.log\00", align 1
@.str.72 = private unnamed_addr constant [22 x i8] c"%s%shs_c%lu_pid%u.log\00", align 1
@.str.73 = private unnamed_addr constant [3 x i8] c"wt\00", align 1
@.str.74 = private unnamed_addr constant [27 x i8] c"Opening compilation log %s\00", align 1
@.str.75 = private unnamed_addr constant [42 x i8] c"thread_logfile thread='%ld' filename='%s'\00", align 1
@.str.76 = private unnamed_addr constant [25 x i8] c"Cannot open log file: %s\00", align 1
@_ZN6Thread12_thr_currentE = external thread_local global ptr, align 8

; Function Attrs: mustprogress nounwind uwtable
define linkonce_odr hidden noundef ptr @_ZN6Thread15current_or_nullEv() #1 comdat align 2 {
  %1 = call align 8 ptr @llvm.threadlocal.address.p0(ptr align 8 @_ZN6Thread12_thr_currentE)
  %2 = load ptr, ptr %1, align 8
  ret ptr %2
}

; Function Attrs: mustprogress nounwind uwtable
define linkonce_odr hidden noundef ptr @_ZN10JavaThread4castEP6Thread(ptr noundef %0) #1 comdat align 2 {
  %2 = alloca ptr, align 8
  store ptr %0, ptr %2, align 8
  %3 = load ptr, ptr %2, align 8
  ret ptr %3
}

; Function Attrs: mustprogress nounwind uwtable
define linkonce_odr hidden noundef ptr @_ZN6Thread7currentEv() #1 comdat align 2 {
  %1 = alloca ptr, align 8
  %2 = call noundef ptr @_ZN6Thread15current_or_nullEv()
  store ptr %2, ptr %1, align 8
  %3 = load ptr, ptr %1, align 8
  ret ptr %3
}

; Function Attrs: mustprogress nounwind uwtable
define linkonce_odr hidden noundef ptr @_ZN14CompilerThread4castEP6Thread(ptr noundef %0) #1 comdat align 2 {
  %2 = alloca ptr, align 8
  store ptr %0, ptr %2, align 8
  %3 = load ptr, ptr %2, align 8
  ret ptr %3
}

; Function Attrs: mustprogress nounwind uwtable
define linkonce_odr hidden noundef ptr @_ZN10JavaThread7currentEv() #1 comdat align 2 {
  %1 = call noundef ptr @_ZN6Thread7currentEv()
  %2 = call noundef ptr @_ZN10JavaThread4castEP6Thread(ptr noundef %1)
  ret ptr %2
}

; Function Attrs: mustprogress nounwind uwtable
define linkonce_odr hidden void @_ZN9ttyLockerD2Ev(ptr noundef nonnull align 8 dereferenceable(8) %0) unnamed_addr #1 comdat align 2 {
  %2 = alloca ptr, align 8
  store ptr %0, ptr %2, align 8
  %3 = load ptr, ptr %2, align 8
  %4 = getelementptr inbounds %class.ttyLocker, ptr %3, i32 0, i32 0
  %5 = load i64, ptr %4, align 8
  call void @_ZN9ttyLocker11release_ttyEl(i64 noundef %5)
  ret void
}

; Function Attrs: mustprogress nounwind uwtable
define linkonce_odr hidden void @_ZN9ttyLockerC2Ev(ptr noundef nonnull align 8 dereferenceable(8) %0) unnamed_addr #1 comdat align 2 {
  %2 = alloca ptr, align 8
  store ptr %0, ptr %2, align 8
  %3 = load ptr, ptr %2, align 8
  %4 = call noundef i64 @_ZN9ttyLocker8hold_ttyEv()
  %5 = getelementptr inbounds %class.ttyLocker, ptr %3, i32 0, i32 0
  store i64 %4, ptr %5, align 8
  ret void
}

; Function Attrs: mustprogress nounwind uwtable
define linkonce_odr hidden void @_ZN14CompilerThread8init_logEP10CompileLog(ptr noundef nonnull align 8 dereferenceable(1880) %0, ptr noundef %1) #1 comdat align 2 {
  %3 = alloca ptr, align 8
  %4 = alloca ptr, align 8
  store ptr %0, ptr %3, align 8
  store ptr %1, ptr %4, align 8
  %5 = load ptr, ptr %3, align 8
  %6 = load ptr, ptr %4, align 8
  %7 = getelementptr inbounds %class.CompilerThread, ptr %5, i32 0, i32 3
  store ptr %6, ptr %7, align 8
  ret void
}

; Function Attrs: mustprogress nounwind uwtable
define linkonce_odr hidden noundef ptr @_ZN14CompilerThread7currentEv() #1 comdat align 2 {
  %1 = call noundef ptr @_ZN10JavaThread7currentEv()
  %2 = call noundef ptr @_ZN14CompilerThread4castEP6Thread(ptr noundef %1)
  ret ptr %2
}

; Function Attrs: mustprogress nounwind uwtable
define hidden void @_ZN13CompileBroker24init_compiler_thread_logEv() #1 align 2 {
  %1 = alloca i64, align 8
  %2 = alloca i8, align 1
  %3 = alloca ptr, align 8
  %4 = alloca [4096 x i8], align 16
  %5 = alloca ptr, align 8
  %6 = alloca i64, align 8
  %7 = alloca i32, align 4
  %8 = alloca ptr, align 8
  %9 = alloca ptr, align 8
  %10 = alloca %class.ttyLocker, align 8
  %11 = call noundef ptr @_ZN14CompilerThread7currentEv()
  store ptr %11, ptr %3, align 8
  store ptr null, ptr %5, align 8
  %12 = call noundef i64 @_ZN2os17current_thread_idEv()
  store i64 %12, ptr %6, align 8
  store i32 1, ptr %7, align 4
  br label %13

13:                                               ; preds = %73, %0
  %14 = load i32, ptr %7, align 4
  %15 = icmp sge i32 %14, 0
  br i1 %15, label %16, label %76

16:                                               ; preds = %13
  %17 = load i32, ptr %7, align 4
  %18 = icmp ne i32 %17, 0
  br i1 %18, label %19, label %21

19:                                               ; preds = %16
  %20 = call noundef ptr @_ZN2os18get_temp_directoryEv()
  br label %22

21:                                               ; preds = %16
  br label %22

22:                                               ; preds = %21, %19
  %23 = phi ptr [ %20, %19 ], [ null, %21 ]
  store ptr %23, ptr %8, align 8
  %24 = load ptr, ptr %8, align 8
  %25 = icmp eq ptr %24, null
  br i1 %25, label %26, label %31

26:                                               ; preds = %22
  %27 = getelementptr inbounds [4096 x i8], ptr %4, i64 0, i64 0
  %28 = load i64, ptr %6, align 8
  %29 = call noundef i32 @_ZN2os18current_process_idEv()
  %30 = call i32 (ptr, i64, ptr, ...) @jio_snprintf(ptr noundef %27, i64 noundef 4096, ptr noundef @.str.71, i64 noundef %28, i32 noundef %29)
  br label %38

31:                                               ; preds = %22
  %32 = getelementptr inbounds [4096 x i8], ptr %4, i64 0, i64 0
  %33 = load ptr, ptr %8, align 8
  %34 = call noundef ptr @_ZN2os14file_separatorEv()
  %35 = load i64, ptr %6, align 8
  %36 = call noundef i32 @_ZN2os18current_process_idEv()
  %37 = call i32 (ptr, i64, ptr, ...) @jio_snprintf(ptr noundef %32, i64 noundef 4096, ptr noundef @.str.72, ptr noundef %33, ptr noundef %34, i64 noundef %35, i32 noundef %36)
  br label %38

38:                                               ; preds = %31, %26
  %39 = getelementptr inbounds [4096 x i8], ptr %4, i64 0, i64 0
  %40 = call noundef ptr @_ZN2os5fopenEPKcS1_(ptr noundef %39, ptr noundef @.str.73)
  store ptr %40, ptr %5, align 8
  %41 = load ptr, ptr %5, align 8
  %42 = icmp ne ptr %41, null
  br i1 %42, label %43, label %72

43:                                               ; preds = %38
  %44 = load i8, ptr @LogCompilation, align 1
  %45 = trunc i8 %44 to i1
  br i1 %45, label %46, label %50

46:                                               ; preds = %43
  br i1 false, label %47, label %50

47:                                               ; preds = %46
  %48 = load ptr, ptr @tty, align 8
  %49 = getelementptr inbounds [4096 x i8], ptr %4, i64 0, i64 0
  call void (ptr, ptr, ...) @_ZN12outputStream8print_crEPKcz(ptr noundef nonnull align 8 dereferenceable(56) %48, ptr noundef @.str.74, ptr noundef %49)
  br label %50

50:                                               ; preds = %47, %46, %43
  store i64 440, ptr %1, align 8
  store i8 7, ptr %2, align 1
  %51 = load i64, ptr %1, align 8
  %52 = load i8, ptr %2, align 1
  %53 = call noundef ptr @_Z12AllocateHeapm8MEMFLAGSN17AllocFailStrategy13AllocFailEnumE(i64 noundef %51, i8 noundef zeroext %52, i32 noundef 0) #10
  %54 = getelementptr inbounds [4096 x i8], ptr %4, i64 0, i64 0
  %55 = load ptr, ptr %5, align 8
  %56 = load i64, ptr %6, align 8
  call void @_ZN10CompileLogC1EPKcP8_IO_FILEl(ptr noundef nonnull align 8 dereferenceable(440) %53, ptr noundef %54, ptr noundef %55, i64 noundef %56)
  store ptr %53, ptr %9, align 8
  %57 = load ptr, ptr %9, align 8
  %58 = icmp eq ptr %57, null
  br i1 %58, label %59, label %62

59:                                               ; preds = %50
  %60 = load ptr, ptr %5, align 8
  %61 = call i32 @fclose(ptr noundef %60)
  br label %78

62:                                               ; preds = %50
  %63 = load ptr, ptr %3, align 8
  %64 = load ptr, ptr %9, align 8
  call void @_ZN14CompilerThread8init_logEP10CompileLog(ptr noundef nonnull align 8 dereferenceable(1880) %63, ptr noundef %64)
  %65 = load ptr, ptr @xtty, align 8
  %66 = icmp ne ptr %65, null
  br i1 %66, label %67, label %71

67:                                               ; preds = %62
  call void @_ZN9ttyLockerC2Ev(ptr noundef nonnull align 8 dereferenceable(8) %10)
  %68 = load ptr, ptr @xtty, align 8
  %69 = load i64, ptr %6, align 8
  %70 = getelementptr inbounds [4096 x i8], ptr %4, i64 0, i64 0
  call void (ptr, ptr, ...) @_ZN9xmlStream4elemEPKcz(ptr noundef nonnull align 8 dereferenceable(152) %68, ptr noundef @.str.75, i64 noundef %69, ptr noundef %70)
  call void @_ZN9ttyLockerD2Ev(ptr noundef nonnull align 8 dereferenceable(8) %10) #10
  br label %71

71:                                               ; preds = %67, %62
  br label %78

72:                                               ; preds = %38
  br label %73

73:                                               ; preds = %72
  %74 = load i32, ptr %7, align 4
  %75 = add nsw i32 %74, -1
  store i32 %75, ptr %7, align 4
  br label %13, !llvm.loop !23

76:                                               ; preds = %13
  %77 = getelementptr inbounds [4096 x i8], ptr %4, i64 0, i64 0
  call void (ptr, ...) @_Z7warningPKcz(ptr noundef @.str.76, ptr noundef %77)
  br label %78

78:                                               ; preds = %76, %71, %59
  ret void
}