; Function Attrs: mustprogress nounwind uwtable
define hidden void @_ZN13CompileBroker24init_compiler_thread_logEv() local_unnamed_addr #0 align 2 {
  %1 = alloca [4096 x i8], align 16
  %2 = tail call align 8 ptr @llvm.threadlocal.address.p0(ptr align 8 @_ZN6Thread12_thr_currentE)
  %3 = load ptr, ptr %2, align 8
  %4 = tail call noundef i64 @_ZN2os17current_thread_idEv() #20
  br label %7

5:                                                ; preds = %17
  %6 = add nsw i32 %.020, -1
  %.not22 = icmp eq i32 %.020, 0
  br i1 %.not22, label %26, label %7, !llvm.loop !40

7:                                                ; preds = %0, %5
  %.020 = phi i32 [ 1, %0 ], [ %6, %5 ]
  %.not = icmp eq i32 %.020, 0
  br i1 %.not, label %.thread, label %8

8:                                                ; preds = %7
  %9 = call noundef ptr @_ZN2os18get_temp_directoryEv() #20
  %10 = icmp eq ptr %9, null
  br i1 %10, label %.thread, label %13

.thread:                                          ; preds = %7, %8
  %11 = call noundef i32 @_ZN2os18current_process_idEv() #20
  %12 = call i32 (ptr, i64, ptr, ...) @jio_snprintf(ptr noundef nonnull %1, i64 noundef 4096, ptr noundef nonnull @.str.71, i64 noundef %4, i32 noundef %11) #20
  br label %17

13:                                               ; preds = %8
  %14 = call noundef ptr @_ZN2os14file_separatorEv() #20
  %15 = call noundef i32 @_ZN2os18current_process_idEv() #20
  %16 = call i32 (ptr, i64, ptr, ...) @jio_snprintf(ptr noundef nonnull %1, i64 noundef 4096, ptr noundef nonnull @.str.72, ptr noundef nonnull %9, ptr noundef %14, i64 noundef %4, i32 noundef %15) #20
  br label %17

17:                                               ; preds = %13, %.thread
  %18 = call noundef ptr @_ZN2os5fopenEPKcS1_(ptr noundef nonnull %1, ptr noundef nonnull @.str.73) #20
  %.not18 = icmp eq ptr %18, null
  br i1 %.not18, label %5, label %19

19:                                               ; preds = %17
  %20 = call noundef ptr @_Z12AllocateHeapm8MEMFLAGSN17AllocFailStrategy13AllocFailEnumE(i64 noundef 440, i8 noundef zeroext 7, i32 noundef 0) #20
  call void @_ZN10CompileLogC1EPKcP8_IO_FILEl(ptr noundef nonnull align 8 dereferenceable(440) %20, ptr noundef nonnull %1, ptr noundef nonnull %18, i64 noundef %4) #20
  %21 = getelementptr inbounds i8, ptr %3, i64 1816
  store ptr %20, ptr %21, align 8
  %22 = load ptr, ptr @xtty, align 8
  %.not19 = icmp eq ptr %22, null
  br i1 %.not19, label %27, label %23

23:                                               ; preds = %19
  %24 = call noundef i64 @_ZN9ttyLocker8hold_ttyEv() #20
  %25 = load ptr, ptr @xtty, align 8
  call void (ptr, ptr, ...) @_ZN9xmlStream4elemEPKcz(ptr noundef nonnull align 8 dereferenceable(152) %25, ptr noundef nonnull @.str.75, i64 noundef %4, ptr noundef nonnull %1) #20
  call void @_ZN9ttyLocker11release_ttyEl(i64 noundef %24) #20
  br label %27

26:                                               ; preds = %5
  call void (ptr, ...) @_Z7warningPKcz(ptr noundef nonnull @.str.76, ptr noundef nonnull %1) #20
  br label %27

27:                                               ; preds = %19, %23, %26
  ret void
}